target datalayout = "e-m:e-p270:32:32-p271:32:32-p272:64:64-i64:64-i128:128-f80:128-n8:16:32:64-S128"
target triple = "x86_64-pc-linux-gnu"

%union.pthread_mutex_t = type { %struct.__pthread_mutex_s }
%struct.__pthread_mutex_s = type { i32, i32, i32, i32, i32, i16, i16, %struct.__pthread_internal_list }
%struct.__pthread_internal_list = type { ptr, ptr }
%struct.SessionRow = type { i32, i32, [3 x %struct.WOLFSSL_SESSION] }
%struct.WOLFSSL_SESSION = type { i32, i32, %struct.wolfSSL_RefWithMutex, [32 x i8], i8, ptr, i8, i32, i32, [32 x i8], i8, [48 x i8], i16, i8, i8, i16, [20 x i8], i16, i8 }
%struct.wolfSSL_RefWithMutex = type { %union.pthread_mutex_t, i32 }
%struct.ClientRow = type { i32, i32, [24 x %struct.ClientSession] }
%struct.ClientSession = type { i16, i16, i32 }
%struct.WOLFSSL_CTX = type <{ ptr, %struct.wolfSSL_RefWithMutex, i32, [4 x i8], %struct.WOLFSSL_BUFFER_INFO, %struct.WOLFSSL_BUFFER_INFO, ptr, ptr, i32, [4 x i8], ptr, i8, i8, [2 x i8], i32, i32, [4 x i8], ptr, ptr, ptr, i8, i16, i8, i8, i8, i16, i16, i16, i16, [2 x i8], i64, ptr, ptr, ptr, ptr, i32, i32, i16, [2 x i8], i32, [10 x i16], i8, [3 x i8], ptr, ptr, i32, [4 x i8], ptr, i8, [7 x i8] }>
%struct.WOLFSSL_BUFFER_INFO = type { ptr, i32 }
%struct.WOLFSSL = type <{ ptr, ptr, ptr, ptr, [48 x i8], [48 x i8], ptr, ptr, ptr, ptr, ptr, ptr, ptr, ptr, ptr, ptr, ptr, ptr, ptr, i32, [4 x i8], %struct.WOLFSSL_CIPHER, ptr, %struct.Ciphers, %struct.Ciphers, [8 x i8], %struct.Buffers, ptr, ptr, %struct.WOLFSSL_ALERT_HISTORY, %struct.WOLFSSL_ALERT, i32, i32, i32, i32, i32, i32, i32, i16, [2 x i8], i32, i8, %struct.RecordLayerHeader, %struct.MsgsReceived, %struct.ProtocolVersion, %struct.ProtocolVersion, %struct.CipherSpecs, [2 x i8], %struct.Keys, %struct.Options, ptr, i8, i8, i16, [10 x i16], i8, i8, i16, i16, [38 x i8], i32, i32, [4 x i8], ptr, i8, i8, [6 x i8], ptr, ptr, i16, i8, i8, i32, i8, [3 x i8], i32, %struct.OneTimeAuth, ptr }>
%struct.WOLFSSL_CIPHER = type { i8, i8, ptr }
%struct.Ciphers = type { ptr, ptr, ptr, ptr, i8, i8 }
%struct.Buffers = type { %struct.bufferStatic, %struct.bufferStatic, %struct.WOLFSSL_BUFFER_INFO, %struct.WOLFSSL_BUFFER_INFO, %struct.WOLFSSL_BUFFER_INFO, %struct.WOLFSSL_BUFFER_INFO, i32, i32, i8, i8, i8, i8, %struct.WOLFSSL_BUFFER_INFO, %struct.WOLFSSL_BUFFER_INFO, %struct.WOLFSSL_BUFFER_INFO, %struct.WOLFSSL_BUFFER_INFO, ptr, ptr, ptr, i8, i8, i32, i32, ptr, i32, [1 x ptr] }
%struct.bufferStatic = type { [5 x i8], ptr, i32, i32, i32, i8, i8 }
%struct.WOLFSSL_ALERT_HISTORY = type { %struct.WOLFSSL_ALERT, %struct.WOLFSSL_ALERT }
%struct.WOLFSSL_ALERT = type { i32, i32 }
%struct.RecordLayerHeader = type { i8, i8, i8, [2 x i8] }
%struct.MsgsReceived = type { i32 }
%struct.ProtocolVersion = type { i8, i8 }
%struct.CipherSpecs = type { i16, i16, i16, i16, i8, i8, i8, i8, i8, i8, i8, i8 }
%struct.Keys = type { [64 x i8], [64 x i8], [32 x i8], [32 x i8], [16 x i8], [16 x i8], [8 x i8], [12 x i8], [12 x i8], i32, i32, i32, i32, i32, i32, i8, i8, i8, i8 }
%struct.Options = type { i64, i64, i8, i8, i8, i8, i8, i8, i8, i8, i8, i8, i8, i8, i8, i8, i8, i8, i8, i8, i8, i8, i8, i16, i16, i16, i16, i16, i8 }
%struct.OneTimeAuth = type { ptr, i8 }

@session_lock = internal global %union.pthread_mutex_t zeroinitializer, align 8
@SessionCache = internal global [11 x %struct.SessionRow] zeroinitializer, align 16
@clisession_mutex = internal global %union.pthread_mutex_t zeroinitializer, align 8
@ClientCache = internal global [88 x %struct.ClientRow] zeroinitializer, align 16

; Function Attrs: inlinehint nounwind uwtable
define internal i32 @MakeWordFromHash(ptr noundef %0) #4 {
  %2 = alloca ptr, align 8
  store ptr %0, ptr %2, align 8, !tbaa !21
  %3 = load ptr, ptr %2, align 8, !tbaa !21
  %4 = getelementptr inbounds i8, ptr %3, i64 0
  %5 = load i8, ptr %4, align 1, !tbaa !20
  %6 = zext i8 %5 to i32
  %7 = shl i32 %6, 24
  %8 = load ptr, ptr %2, align 8, !tbaa !21
  %9 = getelementptr inbounds i8, ptr %8, i64 1
  %10 = load i8, ptr %9, align 1, !tbaa !20
  %11 = zext i8 %10 to i32
  %12 = shl i32 %11, 16
  %13 = or i32 %7, %12
  %14 = load ptr, ptr %2, align 8, !tbaa !21
  %15 = getelementptr inbounds i8, ptr %14, i64 2
  %16 = load i8, ptr %15, align 1, !tbaa !20
  %17 = zext i8 %16 to i32
  %18 = shl i32 %17, 8
  %19 = or i32 %13, %18
  %20 = load ptr, ptr %2, align 8, !tbaa !21
  %21 = getelementptr inbounds i8, ptr %20, i64 3
  %22 = load i8, ptr %21, align 1, !tbaa !20
  %23 = zext i8 %22 to i32
  %24 = or i32 %19, %23
  ret i32 %24
}

; Function Attrs: inlinehint nounwind uwtable
define internal i32 @ctMaskWord32GTE(i32 noundef %0, i32 noundef %1) #4 {
  %3 = alloca i32, align 4
  %4 = alloca i32, align 4
  store i32 %0, ptr %3, align 4, !tbaa !7
  store i32 %1, ptr %4, align 4, !tbaa !7
  %5 = load i32, ptr %3, align 4, !tbaa !7
  %6 = zext i32 %5 to i64
  %7 = load i32, ptr %4, align 4, !tbaa !7
  %8 = zext i32 %7 to i64
  %9 = sub i64 %6, %8
  %10 = lshr i64 %9, 63
  %11 = sub i64 %10, 1
  %12 = trunc i64 %11 to i32
  ret i32 %12
}

; Function Attrs: inlinehint nounwind uwtable
define internal i32 @HashObject(ptr noundef %0, i32 noundef %1, ptr noundef %2) #4 {
  %4 = alloca ptr, align 8
  %5 = alloca i32, align 4
  %6 = alloca ptr, align 8
  %7 = alloca [64 x i8], align 16
  store ptr %0, ptr %4, align 8, !tbaa !21
  store i32 %1, ptr %5, align 4, !tbaa !7
  store ptr %2, ptr %6, align 8, !tbaa !92
  call void @llvm.lifetime.start.p0(i64 64, ptr %7) #9
  %8 = load ptr, ptr %4, align 8, !tbaa !21
  %9 = load i32, ptr %5, align 4, !tbaa !7
  %10 = getelementptr inbounds [64 x i8], ptr %7, i64 0, i64 0
  %11 = call i32 @wc_Md5Hash(ptr noundef %8, i32 noundef %9, ptr noundef %10)
  %12 = load ptr, ptr %6, align 8, !tbaa !92
  store i32 %11, ptr %12, align 4, !tbaa !7
  %13 = load ptr, ptr %6, align 8, !tbaa !92
  %14 = load i32, ptr %13, align 4, !tbaa !7
  %15 = icmp eq i32 %14, 0
  br i1 %15, label %16, label %19

16:                                               ; preds = %3
  %17 = getelementptr inbounds [64 x i8], ptr %7, i64 0, i64 0
  %18 = call i32 @MakeWordFromHash(ptr noundef %17)
  br label %20

19:                                               ; preds = %3
  br label %20

20:                                               ; preds = %19, %16
  %21 = phi i32 [ %18, %16 ], [ 0, %19 ]
  call void @llvm.lifetime.end.p0(i64 64, ptr %7) #9
  ret i32 %21
}

; Function Attrs: inlinehint nounwind uwtable
define internal i32 @min(i32 noundef %0, i32 noundef %1) #4 {
  %3 = alloca i32, align 4
  %4 = alloca i32, align 4
  %5 = alloca i32, align 4
  store i32 %0, ptr %3, align 4, !tbaa !7
  store i32 %1, ptr %4, align 4, !tbaa !7
  call void @llvm.lifetime.start.p0(i64 4, ptr %5) #9
  %6 = load i32, ptr %3, align 4, !tbaa !7
  %7 = load i32, ptr %4, align 4, !tbaa !7
  %8 = call i32 @ctMaskWord32GTE(i32 noundef %6, i32 noundef %7)
  store i32 %8, ptr %5, align 4, !tbaa !7
  %9 = load i32, ptr %3, align 4, !tbaa !7
  %10 = load i32, ptr %5, align 4, !tbaa !7
  %11 = xor i32 %10, -1
  %12 = and i32 %9, %11
  %13 = load i32, ptr %4, align 4, !tbaa !7
  %14 = load i32, ptr %5, align 4, !tbaa !7
  %15 = and i32 %13, %14
  %16 = or i32 %12, %15
  call void @llvm.lifetime.end.p0(i64 4, ptr %5) #9
  ret i32 %16
}

; Function Attrs: nounwind uwtable
define ptr @wolfSSL_GetSessionClient(ptr noundef %0, ptr noundef %1, i32 noundef %2) #0 {
  %4 = alloca ptr, align 8
  %5 = alloca ptr, align 8
  %6 = alloca ptr, align 8
  %7 = alloca i32, align 4
  %8 = alloca ptr, align 8
  %9 = alloca i32, align 4
  %10 = alloca i32, align 4
  %11 = alloca i32, align 4
  %12 = alloca i32, align 4
  %13 = alloca ptr, align 8
  %14 = alloca i32, align 4
  %15 = alloca ptr, align 8
  %16 = alloca ptr, align 8
  store ptr %0, ptr %5, align 8, !tbaa !61
  store ptr %1, ptr %6, align 8, !tbaa !21
  store i32 %2, ptr %7, align 4, !tbaa !7
  call void @llvm.lifetime.start.p0(i64 8, ptr %8) #9
  store ptr null, ptr %8, align 8, !tbaa !53
  call void @llvm.lifetime.start.p0(i64 4, ptr %9) #9
  call void @llvm.lifetime.start.p0(i64 4, ptr %10) #9
  call void @llvm.lifetime.start.p0(i64 4, ptr %11) #9
  call void @llvm.lifetime.start.p0(i64 4, ptr %12) #9
  store i32 0, ptr %12, align 4, !tbaa !7
  call void @llvm.lifetime.start.p0(i64 8, ptr %13) #9
  br label %17

17:                                               ; preds = %3
  br label %18

18:                                               ; preds = %17
  br label %19

19:                                               ; preds = %18
  %20 = load ptr, ptr %5, align 8, !tbaa !61
  %21 = getelementptr inbounds nuw %struct.WOLFSSL, ptr %20, i32 0, i32 0
  %22 = load ptr, ptr %21, align 16, !tbaa !90
  %23 = getelementptr inbounds nuw %struct.WOLFSSL_CTX, ptr %22, i32 0, i32 21
  %24 = load i16, ptr %23, align 1
  %25 = lshr i16 %24, 4
  %26 = and i16 %25, 1
  %27 = trunc i16 %26 to i8
  %28 = icmp ne i8 %27, 0
  br i1 %28, label %29, label %33

29:                                               ; preds = %19
  br label %30

30:                                               ; preds = %29
  br label %31

31:                                               ; preds = %30
  br label %32

32:                                               ; preds = %31
  store ptr null, ptr %4, align 8
  store i32 1, ptr %14, align 4
  br label %189

33:                                               ; preds = %19
  %34 = load ptr, ptr %5, align 8, !tbaa !61
  %35 = getelementptr inbounds nuw %struct.WOLFSSL, ptr %34, i32 0, i32 49
  %36 = getelementptr inbounds nuw %struct.Options, ptr %35, i32 0, i32 1
  %37 = load i64, ptr %36, align 8
  %38 = lshr i64 %37, 4
  %39 = and i64 %38, 3
  %40 = trunc i64 %39 to i16
  %41 = zext i16 %40 to i32
  %42 = icmp eq i32 %41, 0
  br i1 %42, label %43, label %44

43:                                               ; preds = %33
  store ptr null, ptr %4, align 8
  store i32 1, ptr %14, align 4
  br label %189

44:                                               ; preds = %33
  %45 = load i32, ptr %7, align 4, !tbaa !7
  %46 = call i32 @min(i32 noundef 20, i32 noundef %45)
  store i32 %46, ptr %7, align 4, !tbaa !7
  %47 = load ptr, ptr %6, align 8, !tbaa !21
  %48 = load i32, ptr %7, align 4, !tbaa !7
  %49 = call i32 @HashObject(ptr noundef %47, i32 noundef %48, ptr noundef %12)
  %50 = urem i32 %49, 88
  store i32 %50, ptr %9, align 4, !tbaa !7
  %51 = load i32, ptr %12, align 4, !tbaa !7
  %52 = icmp ne i32 %51, 0
  br i1 %52, label %53, label %57

53:                                               ; preds = %44
  br label %54

54:                                               ; preds = %53
  br label %55

55:                                               ; preds = %54
  br label %56

56:                                               ; preds = %55
  store ptr null, ptr %4, align 8
  store i32 1, ptr %14, align 4
  br label %189

57:                                               ; preds = %44
  %58 = call i32 @wc_LockMutex(ptr noundef @clisession_mutex)
  %59 = icmp ne i32 %58, 0
  br i1 %59, label %60, label %64

60:                                               ; preds = %57
  br label %61

61:                                               ; preds = %60
  br label %62

62:                                               ; preds = %61
  br label %63

63:                                               ; preds = %62
  store ptr null, ptr %4, align 8
  store i32 1, ptr %14, align 4
  br label %189

64:                                               ; preds = %57
  %65 = load i32, ptr %9, align 4, !tbaa !7
  %66 = zext i32 %65 to i64
  %67 = getelementptr inbounds nuw [88 x %struct.ClientRow], ptr @ClientCache, i64 0, i64 %66
  %68 = getelementptr inbounds nuw %struct.ClientRow, ptr %67, i32 0, i32 1
  %69 = load i32, ptr %68, align 4, !tbaa !115
  %70 = call i32 @min(i32 noundef %69, i32 noundef 24)
  store i32 %70, ptr %11, align 4, !tbaa !7
  %71 = load i32, ptr %9, align 4, !tbaa !7
  %72 = zext i32 %71 to i64
  %73 = getelementptr inbounds nuw [88 x %struct.ClientRow], ptr @ClientCache, i64 0, i64 %72
  %74 = getelementptr inbounds nuw %struct.ClientRow, ptr %73, i32 0, i32 0
  %75 = load i32, ptr %74, align 8, !tbaa !117
  %76 = sub nsw i32 %75, 1
  store i32 %76, ptr %10, align 4, !tbaa !7
  %77 = load i32, ptr %10, align 4, !tbaa !7
  %78 = icmp slt i32 %77, 0
  br i1 %78, label %82, label %79

79:                                               ; preds = %64
  %80 = load i32, ptr %10, align 4, !tbaa !7
  %81 = icmp sge i32 %80, 24
  br i1 %81, label %82, label %83

82:                                               ; preds = %79, %64
  store i32 23, ptr %10, align 4, !tbaa !7
  br label %83

83:                                               ; preds = %82, %79
  %84 = load i32, ptr %9, align 4, !tbaa !7
  %85 = zext i32 %84 to i64
  %86 = getelementptr inbounds nuw [88 x %struct.ClientRow], ptr @ClientCache, i64 0, i64 %85
  %87 = getelementptr inbounds nuw %struct.ClientRow, ptr %86, i32 0, i32 2
  %88 = getelementptr inbounds [24 x %struct.ClientSession], ptr %87, i64 0, i64 0
  store ptr %88, ptr %13, align 8, !tbaa !107
  br label %89

89:                                               ; preds = %183, %83
  %90 = load i32, ptr %11, align 4, !tbaa !7
  %91 = icmp sgt i32 %90, 0
  br i1 %91, label %92, label %186

92:                                               ; preds = %89
  call void @llvm.lifetime.start.p0(i64 8, ptr %15) #9
  call void @llvm.lifetime.start.p0(i64 8, ptr %16) #9
  %93 = load ptr, ptr %13, align 8, !tbaa !107
  %94 = load i32, ptr %10, align 4, !tbaa !7
  %95 = sext i32 %94 to i64
  %96 = getelementptr inbounds %struct.ClientSession, ptr %93, i64 %95
  %97 = getelementptr inbounds nuw %struct.ClientSession, ptr %96, i32 0, i32 0
  %98 = load i16, ptr %97, align 4, !tbaa !118
  %99 = zext i16 %98 to i32
  %100 = icmp sge i32 %99, 11
  br i1 %100, label %101, label %105

101:                                              ; preds = %92
  br label %102

102:                                              ; preds = %101
  br label %103

103:                                              ; preds = %102
  br label %104

104:                                              ; preds = %103
  store i32 10, ptr %14, align 4
  br label %180

105:                                              ; preds = %92
  %106 = load ptr, ptr %13, align 8, !tbaa !107
  %107 = load i32, ptr %10, align 4, !tbaa !7
  %108 = sext i32 %107 to i64
  %109 = getelementptr inbounds %struct.ClientSession, ptr %106, i64 %108
  %110 = getelementptr inbounds nuw %struct.ClientSession, ptr %109, i32 0, i32 0
  %111 = load i16, ptr %110, align 4, !tbaa !118
  %112 = zext i16 %111 to i64
  %113 = getelementptr inbounds nuw [11 x %struct.SessionRow], ptr @SessionCache, i64 0, i64 %112
  store ptr %113, ptr %16, align 8, !tbaa !97
  %114 = call i32 @wc_LockRwLock_Rd(ptr noundef @session_lock)
  %115 = icmp ne i32 %114, 0
  br i1 %115, label %116, label %120

116:                                              ; preds = %105
  br label %117

117:                                              ; preds = %116
  br label %118

118:                                              ; preds = %117
  br label %119

119:                                              ; preds = %118
  store i32 10, ptr %14, align 4
  br label %180

120:                                              ; preds = %105
  %121 = load ptr, ptr %16, align 8, !tbaa !97
  %122 = getelementptr inbounds nuw %struct.SessionRow, ptr %121, i32 0, i32 2
  %123 = load ptr, ptr %13, align 8, !tbaa !107
  %124 = load i32, ptr %10, align 4, !tbaa !7
  %125 = sext i32 %124 to i64
  %126 = getelementptr inbounds %struct.ClientSession, ptr %123, i64 %125
  %127 = getelementptr inbounds nuw %struct.ClientSession, ptr %126, i32 0, i32 1
  %128 = load i16, ptr %127, align 2, !tbaa !120
  %129 = zext i16 %128 to i64
  %130 = getelementptr inbounds nuw [3 x %struct.WOLFSSL_SESSION], ptr %122, i64 0, i64 %129
  store ptr %130, ptr %15, align 8, !tbaa !53
  %131 = load ptr, ptr %15, align 8, !tbaa !53
  %132 = icmp ne ptr %131, null
  br i1 %132, label %133, label %166

133:                                              ; preds = %120
  %134 = load ptr, ptr %15, align 8, !tbaa !53
  %135 = getelementptr inbounds nuw %struct.WOLFSSL_SESSION, ptr %134, i32 0, i32 16
  %136 = getelementptr inbounds [20 x i8], ptr %135, i64 0, i64 0
  %137 = load ptr, ptr %6, align 8, !tbaa !21
  %138 = load i32, ptr %7, align 4, !tbaa !7
  %139 = sext i32 %138 to i64
  %140 = call i32 @memcmp(ptr noundef %136, ptr noundef %137, i64 noundef %139) #10
  %141 = icmp eq i32 %140, 0
  br i1 %141, label %142, label %166

142:                                              ; preds = %133
  br label %143

143:                                              ; preds = %142
  br label %144

144:                                              ; preds = %143
  br label %145

145:                                              ; preds = %144
  %146 = call i32 @LowResTimer()
  %147 = load ptr, ptr %15, align 8, !tbaa !53
  %148 = getelementptr inbounds nuw %struct.WOLFSSL_SESSION, ptr %147, i32 0, i32 7
  %149 = load i32, ptr %148, align 4, !tbaa !108
  %150 = load ptr, ptr %15, align 8, !tbaa !53
  %151 = getelementptr inbounds nuw %struct.WOLFSSL_SESSION, ptr %150, i32 0, i32 8
  %152 = load i32, ptr %151, align 8, !tbaa !109
  %153 = add i32 %149, %152
  %154 = icmp ult i32 %146, %153
  br i1 %154, label %155, label %161

155:                                              ; preds = %145
  br label %156

156:                                              ; preds = %155
  br label %157

157:                                              ; preds = %156
  br label %158

158:                                              ; preds = %157
  %159 = load ptr, ptr %15, align 8, !tbaa !53
  store ptr %159, ptr %8, align 8, !tbaa !53
  %160 = call i32 @wc_UnLockRwLock(ptr noundef @session_lock)
  store i32 10, ptr %14, align 4
  br label %180

161:                                              ; preds = %145
  br label %162

162:                                              ; preds = %161
  br label %163

163:                                              ; preds = %162
  br label %164

164:                                              ; preds = %163
  br label %165

165:                                              ; preds = %164
  br label %170

166:                                              ; preds = %133, %120
  br label %167

167:                                              ; preds = %166
  br label %168

168:                                              ; preds = %167
  br label %169

169:                                              ; preds = %168
  br label %170

170:                                              ; preds = %169, %165
  %171 = call i32 @wc_UnLockRwLock(ptr noundef @session_lock)
  %172 = load i32, ptr %10, align 4, !tbaa !7
  %173 = icmp sgt i32 %172, 0
  br i1 %173, label %174, label %177

174:                                              ; preds = %170
  %175 = load i32, ptr %10, align 4, !tbaa !7
  %176 = sub nsw i32 %175, 1
  br label %178

177:                                              ; preds = %170
  br label %178

178:                                              ; preds = %177, %174
  %179 = phi i32 [ %176, %174 ], [ 23, %177 ]
  store i32 %179, ptr %10, align 4, !tbaa !7
  store i32 0, ptr %14, align 4
  br label %180

180:                                              ; preds = %178, %158, %119, %104
  call void @llvm.lifetime.end.p0(i64 8, ptr %16) #9
  call void @llvm.lifetime.end.p0(i64 8, ptr %15) #9
  %181 = load i32, ptr %14, align 4
  switch i32 %181, label %191 [
    i32 0, label %182
    i32 10, label %186
  ]

182:                                              ; preds = %180
  br label %183

183:                                              ; preds = %182
  %184 = load i32, ptr %11, align 4, !tbaa !7
  %185 = add nsw i32 %184, -1
  store i32 %185, ptr %11, align 4, !tbaa !7
  br label %89, !llvm.loop !121

186:                                              ; preds = %180, %89
  %187 = call i32 @wc_UnLockMutex(ptr noundef @clisession_mutex)
  %188 = load ptr, ptr %8, align 8, !tbaa !53
  store ptr %188, ptr %4, align 8
  store i32 1, ptr %14, align 4
  br label %189

189:                                              ; preds = %186, %63, %56, %43, %32
  call void @llvm.lifetime.end.p0(i64 8, ptr %13) #9
  call void @llvm.lifetime.end.p0(i64 4, ptr %12) #9
  call void @llvm.lifetime.end.p0(i64 4, ptr %11) #9
  call void @llvm.lifetime.end.p0(i64 4, ptr %10) #9
  call void @llvm.lifetime.end.p0(i64 4, ptr %9) #9
  call void @llvm.lifetime.end.p0(i64 8, ptr %8) #9
  %190 = load ptr, ptr %4, align 8
  ret ptr %190

191:                                              ; preds = %180
  unreachable
}