; Function Attrs: nounwind uwtable
define ptr @wolfSSL_GetSessionClient(ptr noundef readonly captures(none) %0, ptr noundef %1, i32 noundef %2) local_unnamed_addr #0 {
  %4 = alloca [64 x i8], align 16
  %5 = load ptr, ptr %0, align 16, !tbaa !96
  %6 = getelementptr inbounds nuw i8, ptr %5, i64 169
  %7 = load i16, ptr %6, align 1
  %8 = and i16 %7, 16
  %.not = icmp eq i16 %8, 0
  br i1 %.not, label %9, label %82

9:                                                ; preds = %3
  %10 = getelementptr inbounds nuw i8, ptr %0, i64 1024
  %11 = load i64, ptr %10, align 8
  %12 = and i64 %11, 48
  %13 = icmp eq i64 %12, 0
  br i1 %13, label %82, label %14

14:                                               ; preds = %9
  %15 = tail call noundef i32 @llvm.umin.i32(i32 %2, i32 20)
  call void @llvm.lifetime.start.p0(i64 64, ptr nonnull %4) #22
  %16 = call i32 @wc_Md5Hash(ptr noundef %1, i32 noundef %15, ptr noundef nonnull %4) #22
  %17 = icmp eq i32 %16, 0
  br i1 %17, label %18, label %HashObject.exit

HashObject.exit:                                  ; preds = %14
  call void @llvm.lifetime.end.p0(i64 64, ptr nonnull %4) #22
  br label %82

18:                                               ; preds = %14
  %19 = load i8, ptr %4, align 16, !tbaa !43
  %20 = getelementptr inbounds nuw i8, ptr %4, i64 1
  %21 = load i8, ptr %20, align 1, !tbaa !43
  %22 = getelementptr inbounds nuw i8, ptr %4, i64 2
  %23 = load i8, ptr %22, align 2, !tbaa !43
  %24 = getelementptr inbounds nuw i8, ptr %4, i64 3
  %25 = load i8, ptr %24, align 1, !tbaa !43
  call void @llvm.lifetime.end.p0(i64 64, ptr nonnull %4) #22
  %26 = call i32 @wc_LockMutex(ptr noundef nonnull @clisession_mutex) #22
  %.not37 = icmp eq i32 %26, 0
  br i1 %.not37, label %27, label %82

27:                                               ; preds = %18
  %28 = zext i8 %21 to i32
  %29 = shl nuw nsw i32 %28, 16
  %30 = zext i8 %19 to i32
  %31 = shl nuw i32 %30, 24
  %32 = or disjoint i32 %29, %31
  %33 = zext i8 %23 to i32
  %34 = shl nuw nsw i32 %33, 8
  %35 = or disjoint i32 %32, %34
  %36 = zext i8 %25 to i32
  %37 = or disjoint i32 %35, %36
  %38 = urem i32 %37, 88
  %39 = zext nneg i32 %38 to i64
  %40 = getelementptr inbounds nuw [88 x %struct.ClientRow], ptr @ClientCache, i64 0, i64 %39
  %41 = getelementptr inbounds nuw i8, ptr %40, i64 4
  %42 = load i32, ptr %41, align 4, !tbaa !97
  %43 = getelementptr inbounds nuw i8, ptr %40, i64 8
  %.not47 = icmp eq i32 %42, 0
  br i1 %.not47, label %.thread, label %.lr.ph

.lr.ph:                                           ; preds = %27
  %44 = call noundef i32 @llvm.umin.i32(i32 %42, i32 24)
  %45 = load i32, ptr %40, align 8, !tbaa !99
  %46 = add i32 %45, -25
  %or.cond = icmp ult i32 %46, -24
  %47 = add nsw i32 %45, -1
  %spec.store.select = select i1 %or.cond, i32 23, i32 %47
  %48 = zext nneg i32 %15 to i64
  br label %49

49:                                               ; preds = %.lr.ph, %74
  %.03344 = phi i32 [ %44, %.lr.ph ], [ %79, %74 ]
  %.03443 = phi i32 [ %spec.store.select, %.lr.ph ], [ %78, %74 ]
  %50 = sext i32 %.03443 to i64
  %51 = getelementptr inbounds %struct.ClientSession, ptr %43, i64 %50
  %52 = load i16, ptr %51, align 8, !tbaa !100
  %53 = icmp ugt i16 %52, 10
  br i1 %53, label %.thread, label %54

54:                                               ; preds = %49
  %55 = call i32 @wc_LockRwLock_Rd(ptr noundef nonnull @session_lock) #22
  %.not38 = icmp eq i32 %55, 0
  br i1 %.not38, label %56, label %.thread

56:                                               ; preds = %54
  %57 = zext nneg i16 %52 to i64
  %58 = getelementptr inbounds nuw i8, ptr %51, i64 2
  %59 = load i16, ptr %58, align 2, !tbaa !102
  %60 = zext i16 %59 to i64
  %61 = getelementptr inbounds nuw [11 x %struct.SessionRow], ptr @SessionCache, i64 0, i64 %57, i32 2, i64 %60
  %62 = getelementptr inbounds nuw i8, ptr %61, i64 204
  %bcmp = call i32 @bcmp(ptr nonnull %62, ptr %1, i64 %48)
  %63 = icmp eq i32 %bcmp, 0
  br i1 %63, label %64, label %74

64:                                               ; preds = %56
  %65 = call i32 @LowResTimer() #22
  %66 = getelementptr inbounds nuw i8, ptr %61, i64 108
  %67 = load i32, ptr %66, align 4, !tbaa !89
  %68 = getelementptr inbounds nuw i8, ptr %61, i64 112
  %69 = load i32, ptr %68, align 8, !tbaa !90
  %70 = add i32 %69, %67
  %71 = icmp ult i32 %65, %70
  br i1 %71, label %72, label %74

72:                                               ; preds = %64
  %73 = call i32 @wc_UnLockRwLock(ptr noundef nonnull @session_lock) #22
  br label %.thread

74:                                               ; preds = %56, %64
  %75 = call i32 @wc_UnLockRwLock(ptr noundef nonnull @session_lock) #22
  %76 = icmp sgt i32 %.03443, 0
  %77 = add nsw i32 %.03443, -1
  %78 = select i1 %76, i32 %77, i32 23
  %79 = add nsw i32 %.03344, -1
  %80 = icmp sgt i32 %.03344, 1
  br i1 %80, label %49, label %.thread, !llvm.loop !103

.thread:                                          ; preds = %74, %49, %54, %27, %72
  %.1 = phi ptr [ %61, %72 ], [ null, %27 ], [ null, %54 ], [ null, %49 ], [ null, %74 ]
  %81 = call i32 @wc_UnLockMutex(ptr noundef nonnull @clisession_mutex) #22
  br label %82

82:                                               ; preds = %HashObject.exit, %18, %9, %3, %.thread
  %.0 = phi ptr [ %.1, %.thread ], [ null, %3 ], [ null, %9 ], [ null, %HashObject.exit ], [ null, %18 ]
  ret ptr %.0
}